; Function Attrs: mustprogress nofree norecurse nosync nounwind memory(argmem: readwrite) uwtable
define void @_ZN5boost19execution_exception8locationC2ENS_9unit_test13basic_cstringIKcEEmPS4_(ptr nocapture noundef nonnull writeonly align 8 dereferenceable(40) %0, ptr nocapture noundef readonly %1, i64 noundef %2, ptr noundef %3) unnamed_addr #22 align 2 {
  %5 = load ptr, ptr %1, align 8, !tbaa !13
  store ptr %5, ptr %0, align 8, !tbaa !13
  %6 = getelementptr inbounds nuw i8, ptr %0, i64 8
  %7 = getelementptr inbounds nuw i8, ptr %1, i64 8
  %8 = load ptr, ptr %7, align 8, !tbaa !17
  store ptr %8, ptr %6, align 8, !tbaa !17
  %9 = getelementptr inbounds nuw i8, ptr %0, i64 16
  store i64 %2, ptr %9, align 8, !tbaa !125
  %10 = getelementptr inbounds nuw i8, ptr %0, i64 24
  %.not.i = icmp eq ptr %3, null
  br i1 %.not.i, label %.thread.i, label %11

.thread.i:                                        ; preds = %4
  store ptr @_ZN5boost9unit_test13basic_cstringIKcE4nullE, ptr %10, align 8, !tbaa !13
  br label %_ZN5boost9unit_test13basic_cstringIKcEC2EPS2_.exit

11:                                               ; preds = %4
  store ptr %3, ptr %10, align 8, !tbaa !13
  br label %12

12:                                               ; preds = %12, %11
  %.0.i.i = phi ptr [ %3, %11 ], [ %15, %12 ]
  %13 = load i8, ptr %.0.i.i, align 1, !tbaa !11
  %14 = icmp eq i8 %13, 0
  %15 = getelementptr inbounds nuw i8, ptr %.0.i.i, i64 1
  br i1 %14, label %_ZN5boost9unit_test9ut_detail20bcs_char_traits_implIKcE6lengthEPS3_.exit.i, label %12, !llvm.loop !15

_ZN5boost9unit_test9ut_detail20bcs_char_traits_implIKcE6lengthEPS3_.exit.i: ; preds = %12
  %16 = ptrtoint ptr %.0.i.i to i64
  %17 = ptrtoint ptr %3 to i64
  %18 = sub i64 %16, %17
  br label %_ZN5boost9unit_test13basic_cstringIKcEC2EPS2_.exit

_ZN5boost9unit_test13basic_cstringIKcEC2EPS2_.exit: ; preds = %.thread.i, %_ZN5boost9unit_test9ut_detail20bcs_char_traits_implIKcE6lengthEPS3_.exit.i
  %19 = phi ptr [ %3, %_ZN5boost9unit_test9ut_detail20bcs_char_traits_implIKcE6lengthEPS3_.exit.i ], [ @_ZN5boost9unit_test13basic_cstringIKcE4nullE, %.thread.i ]
  %20 = phi i64 [ %18, %_ZN5boost9unit_test9ut_detail20bcs_char_traits_implIKcE6lengthEPS3_.exit.i ], [ 0, %.thread.i ]
  %21 = getelementptr inbounds nuw i8, ptr %0, i64 32
  %22 = getelementptr inbounds nuw i8, ptr %19, i64 %20
  store ptr %22, ptr %21, align 8, !tbaa !17
  ret void
}